; Function Attrs: mustprogress nofree norecurse nosync nounwind willreturn memory(read, inaccessiblemem: none) uwtable
define dso_local noundef zeroext i1 @_ZN4llvm10AArch64_MC11isCopyIdiomERKNS_6MCInstE(ptr noundef nonnull readonly align 8 captures(none) dereferenceable(128) %0) local_unnamed_addr #0 {
  %2 = load i32, ptr %0, align 8
  switch i32 %2, label %40 [
    i32 1462, label %3
    i32 1465, label %3
    i32 4875, label %22
    i32 4877, label %22
  ]

3:                                                ; preds = %1, %1
  %4 = getelementptr inbounds nuw i8, ptr %0, i64 16
  %5 = load ptr, ptr %4, align 8
  %6 = load i8, ptr %5, align 8
  %7 = icmp eq i8 %6, 1
  br i1 %7, label %8, label %40

8:                                                ; preds = %3
  %9 = getelementptr inbounds nuw i8, ptr %5, i64 16
  %10 = load i8, ptr %9, align 8
  %11 = icmp eq i8 %10, 1
  br i1 %11, label %12, label %40

12:                                               ; preds = %8
  %13 = getelementptr inbounds nuw i8, ptr %5, i64 8
  %14 = load i32, ptr %13, align 8
  switch i32 %14, label %15 [
    i32 10, label %18
    i32 8, label %18
  ]

15:                                               ; preds = %12
  %16 = getelementptr inbounds nuw i8, ptr %5, i64 24
  %17 = load i32, ptr %16, align 8
  switch i32 %17, label %40 [
    i32 10, label %18
    i32 8, label %18
  ]

18:                                               ; preds = %15, %15, %12, %12
  %19 = getelementptr inbounds nuw i8, ptr %5, i64 40
  %20 = load i64, ptr %19, align 8
  %21 = icmp eq i64 %20, 0
  br label %40

22:                                               ; preds = %1, %1
  %23 = getelementptr inbounds nuw i8, ptr %0, i64 16
  %24 = load ptr, ptr %23, align 8
  %25 = getelementptr inbounds nuw i8, ptr %24, i64 16
  %26 = load i8, ptr %25, align 8
  %27 = icmp eq i8 %26, 1
  br i1 %27, label %28, label %40

28:                                               ; preds = %22
  %29 = getelementptr inbounds nuw i8, ptr %24, i64 24
  %30 = load i32, ptr %29, align 8
  %.off = add i32 %30, -11
  %switch = icmp ult i32 %.off, 2
  br i1 %switch, label %31, label %40

31:                                               ; preds = %28
  %32 = getelementptr inbounds nuw i8, ptr %24, i64 32
  %33 = load i8, ptr %32, align 8
  %34 = icmp eq i8 %33, 1
  br i1 %34, label %35, label %40

35:                                               ; preds = %31
  %36 = getelementptr inbounds nuw i8, ptr %24, i64 56
  %37 = load i64, ptr %36, align 8
  %38 = and i64 %37, 63
  %39 = icmp eq i64 %38, 0
  br label %40

40:                                               ; preds = %28, %15, %1, %22, %31, %35, %3, %8, %18
  %.0 = phi i1 [ false, %8 ], [ false, %3 ], [ %21, %18 ], [ false, %31 ], [ false, %22 ], [ %39, %35 ], [ false, %1 ], [ false, %15 ], [ false, %28 ]
  ret i1 %.0
}